target datalayout = "e-m:e-p270:32:32-p271:32:32-p272:64:64-i64:64-i128:128-f80:128-n8:16:32:64-S128"
target triple = "x86_64-pc-linux-gnu"

@.str.17 = private unnamed_addr constant [13 x i8] c"DRAIN+REMOVE\00", align 1
@.str.18 = private unnamed_addr constant [6 x i8] c"DRAIN\00", align 1
@.str.19 = private unnamed_addr constant [7 x i8] c"ACTIVE\00", align 1
@.str.20 = private unnamed_addr constant [15 x i8] c"DRAINED+REMOVE\00", align 1
@.str.21 = private unnamed_addr constant [8 x i8] c"DRAINED\00", align 1
@.str.22 = private unnamed_addr constant [9 x i8] c"INACTIVE\00", align 1
@.str.23 = private unnamed_addr constant [3 x i8] c"NA\00", align 1
@.str.24 = private unnamed_addr constant [2 x i8] c"?\00", align 1

; Function Attrs: nounwind uwtable
define dso_local ptr @slurmdb_cluster_fed_states_str(i32 noundef %0) #0 {
  %2 = alloca ptr, align 8
  %3 = alloca i32, align 4
  %4 = alloca i32, align 4
  %5 = alloca i8, align 1
  %6 = alloca i8, align 1
  %7 = alloca i32, align 4
  store i32 %0, ptr %3, align 4
  call void @llvm.lifetime.start.p0(i64 4, ptr %4) #10
  %8 = load i32, ptr %3, align 4
  %9 = and i32 %8, 15
  store i32 %9, ptr %4, align 4
  call void @llvm.lifetime.start.p0(i64 1, ptr %5) #10
  %10 = load i32, ptr %3, align 4
  %11 = and i32 %10, 16
  %12 = icmp ne i32 %11, 0
  %13 = zext i1 %12 to i8
  store i8 %13, ptr %5, align 1
  call void @llvm.lifetime.start.p0(i64 1, ptr %6) #10
  %14 = load i32, ptr %3, align 4
  %15 = and i32 %14, 32
  %16 = icmp ne i32 %15, 0
  %17 = zext i1 %16 to i8
  store i8 %17, ptr %6, align 1
  %18 = load i32, ptr %4, align 4
  %19 = icmp eq i32 %18, 1
  br i1 %19, label %20, label %32

20:                                               ; preds = %1
  %21 = load i8, ptr %6, align 1, !range !12, !noundef !13
  %22 = trunc i8 %21 to i1
  br i1 %22, label %23, label %27

23:                                               ; preds = %20
  %24 = load i8, ptr %5, align 1, !range !12, !noundef !13
  %25 = trunc i8 %24 to i1
  br i1 %25, label %26, label %27

26:                                               ; preds = %23
  store ptr @.str.17, ptr %2, align 8
  store i32 1, ptr %7, align 4
  br label %54

27:                                               ; preds = %23, %20
  %28 = load i8, ptr %5, align 1, !range !12, !noundef !13
  %29 = trunc i8 %28 to i1
  br i1 %29, label %30, label %31

30:                                               ; preds = %27
  store ptr @.str.18, ptr %2, align 8
  store i32 1, ptr %7, align 4
  br label %54

31:                                               ; preds = %27
  store ptr @.str.19, ptr %2, align 8
  store i32 1, ptr %7, align 4
  br label %54

32:                                               ; preds = %1
  %33 = load i32, ptr %4, align 4
  %34 = icmp eq i32 %33, 2
  br i1 %34, label %35, label %47

35:                                               ; preds = %32
  %36 = load i8, ptr %6, align 1, !range !12, !noundef !13
  %37 = trunc i8 %36 to i1
  br i1 %37, label %38, label %42

38:                                               ; preds = %35
  %39 = load i8, ptr %5, align 1, !range !12, !noundef !13
  %40 = trunc i8 %39 to i1
  br i1 %40, label %41, label %42

41:                                               ; preds = %38
  store ptr @.str.20, ptr %2, align 8
  store i32 1, ptr %7, align 4
  br label %54

42:                                               ; preds = %38, %35
  %43 = load i8, ptr %5, align 1, !range !12, !noundef !13
  %44 = trunc i8 %43 to i1
  br i1 %44, label %45, label %46

45:                                               ; preds = %42
  store ptr @.str.21, ptr %2, align 8
  store i32 1, ptr %7, align 4
  br label %54

46:                                               ; preds = %42
  store ptr @.str.22, ptr %2, align 8
  store i32 1, ptr %7, align 4
  br label %54

47:                                               ; preds = %32
  %48 = load i32, ptr %4, align 4
  %49 = icmp eq i32 %48, 0
  br i1 %49, label %50, label %51

50:                                               ; preds = %47
  store ptr @.str.23, ptr %2, align 8
  store i32 1, ptr %7, align 4
  br label %54

51:                                               ; preds = %47
  br label %52

52:                                               ; preds = %51
  br label %53

53:                                               ; preds = %52
  store ptr @.str.24, ptr %2, align 8
  store i32 1, ptr %7, align 4
  br label %54

54:                                               ; preds = %53, %50, %46, %45, %41, %31, %30, %26
  call void @llvm.lifetime.end.p0(i64 1, ptr %6) #10
  call void @llvm.lifetime.end.p0(i64 1, ptr %5) #10
  call void @llvm.lifetime.end.p0(i64 4, ptr %4) #10
  %55 = load ptr, ptr %2, align 8
  ret ptr %55
}