; Function Attrs: mustprogress nofree norecurse nosync nounwind willreturn memory(none) uwtable
define dso_local noundef nonnull ptr @slurmdb_cluster_fed_states_str(i32 noundef %0) local_unnamed_addr #7 {
  %2 = and i32 %0, 15
  %3 = and i32 %0, 16
  %.not = icmp eq i32 %3, 0
  switch i32 %2, label %8 [
    i32 1, label %4
    i32 2, label %6
    i32 0, label %9
  ]

4:                                                ; preds = %1
  %5 = and i32 %0, 48
  %brmerge.not = icmp eq i32 %5, 48
  %.str.19..str.18 = select i1 %.not, ptr @.str.19, ptr @.str.18
  %spec.select = select i1 %brmerge.not, ptr @.str.17, ptr %.str.19..str.18
  br label %9

6:                                                ; preds = %1
  %7 = and i32 %0, 48
  %brmerge14.not = icmp eq i32 %7, 48
  %.str.22..str.21 = select i1 %.not, ptr @.str.22, ptr @.str.21
  %spec.select15 = select i1 %brmerge14.not, ptr @.str.20, ptr %.str.22..str.21
  br label %9

8:                                                ; preds = %1
  br label %9

9:                                                ; preds = %6, %4, %1, %8
  %.0 = phi ptr [ @.str.24, %8 ], [ @.str.23, %1 ], [ %spec.select, %4 ], [ %spec.select15, %6 ]
  ret ptr %.0
}